target datalayout = "e-m:e-p270:32:32-p271:32:32-p272:64:64-i64:64-i128:128-f80:128-n8:16:32:64-S128"
target triple = "x86_64-unknown-linux-gnu"

%"class.grpc_core::Arena" = type { %"struct.std::atomic", %"struct.std::atomic", i64, %"struct.std::atomic.0", %"struct.std::atomic.2", ptr }
%"struct.std::atomic" = type { %"struct.std::__atomic_base" }
%"struct.std::__atomic_base" = type { i64 }
%"struct.std::atomic.0" = type { %"struct.std::__atomic_base.1" }
%"struct.std::__atomic_base.1" = type { ptr }
%"struct.std::atomic.2" = type { %"struct.std::__atomic_base.3" }
%"struct.std::__atomic_base.3" = type { ptr }

; Function Attrs: mustprogress nounwind uwtable
define linkonce_odr void @_ZNSt13__atomic_baseIPN9grpc_core5Arena16ManagedNewObjectEEC2ES3_(ptr noundef nonnull align 8 dereferenceable(8) %this, ptr noundef %__p) unnamed_addr #4 comdat align 2 {
entry:
  %this.addr = alloca ptr, align 8
  %__p.addr = alloca ptr, align 8
  store ptr %this, ptr %this.addr, align 8
  store ptr %__p, ptr %__p.addr, align 8
  %this1 = load ptr, ptr %this.addr, align 8
  %_M_p = getelementptr inbounds %"struct.std::__atomic_base.3", ptr %this1, i32 0, i32 0
  %0 = load ptr, ptr %__p.addr, align 8
  store ptr %0, ptr %_M_p, align 8
  ret void
}

; Function Attrs: mustprogress nounwind uwtable
define linkonce_odr void @_ZNSt13__atomic_baseIPN9grpc_core5Arena4ZoneEEC2ES3_(ptr noundef nonnull align 8 dereferenceable(8) %this, ptr noundef %__p) unnamed_addr #4 comdat align 2 {
entry:
  %this.addr = alloca ptr, align 8
  %__p.addr = alloca ptr, align 8
  store ptr %this, ptr %this.addr, align 8
  store ptr %__p, ptr %__p.addr, align 8
  %this1 = load ptr, ptr %this.addr, align 8
  %_M_p = getelementptr inbounds %"struct.std::__atomic_base.1", ptr %this1, i32 0, i32 0
  %0 = load ptr, ptr %__p.addr, align 8
  store ptr %0, ptr %_M_p, align 8
  ret void
}

; Function Attrs: mustprogress nounwind uwtable
define linkonce_odr void @_ZNSt13__atomic_baseImEC2Em(ptr noundef nonnull align 8 dereferenceable(8) %this, i64 noundef %__i) unnamed_addr #4 comdat align 2 {
entry:
  %this.addr = alloca ptr, align 8
  %__i.addr = alloca i64, align 8
  store ptr %this, ptr %this.addr, align 8
  store i64 %__i, ptr %__i.addr, align 8
  %this1 = load ptr, ptr %this.addr, align 8
  %_M_i = getelementptr inbounds %"struct.std::__atomic_base", ptr %this1, i32 0, i32 0
  %0 = load i64, ptr %__i.addr, align 8
  store i64 %0, ptr %_M_i, align 8
  ret void
}

; Function Attrs: mustprogress nounwind uwtable
define linkonce_odr void @_ZNSt6atomicIPN9grpc_core5Arena16ManagedNewObjectEEC2ES3_(ptr noundef nonnull align 8 dereferenceable(8) %this, ptr noundef %__p) unnamed_addr #4 comdat align 2 {
entry:
  %this.addr = alloca ptr, align 8
  %__p.addr = alloca ptr, align 8
  store ptr %this, ptr %this.addr, align 8
  store ptr %__p, ptr %__p.addr, align 8
  %this1 = load ptr, ptr %this.addr, align 8
  %_M_b = getelementptr inbounds %"struct.std::atomic.2", ptr %this1, i32 0, i32 0
  %0 = load ptr, ptr %__p.addr, align 8
  call void @_ZNSt13__atomic_baseIPN9grpc_core5Arena16ManagedNewObjectEEC2ES3_(ptr noundef nonnull align 8 dereferenceable(8) %_M_b, ptr noundef %0) #3
  ret void
}

; Function Attrs: mustprogress nounwind uwtable
define linkonce_odr void @_ZNSt6atomicIPN9grpc_core5Arena4ZoneEEC2ES3_(ptr noundef nonnull align 8 dereferenceable(8) %this, ptr noundef %__p) unnamed_addr #4 comdat align 2 {
entry:
  %this.addr = alloca ptr, align 8
  %__p.addr = alloca ptr, align 8
  store ptr %this, ptr %this.addr, align 8
  store ptr %__p, ptr %__p.addr, align 8
  %this1 = load ptr, ptr %this.addr, align 8
  %_M_b = getelementptr inbounds %"struct.std::atomic.0", ptr %this1, i32 0, i32 0
  %0 = load ptr, ptr %__p.addr, align 8
  call void @_ZNSt13__atomic_baseIPN9grpc_core5Arena4ZoneEEC2ES3_(ptr noundef nonnull align 8 dereferenceable(8) %_M_b, ptr noundef %0) #3
  ret void
}

; Function Attrs: mustprogress nounwind uwtable
define linkonce_odr void @_ZNSt6atomicImEC2Em(ptr noundef nonnull align 8 dereferenceable(8) %this, i64 noundef %__i) unnamed_addr #4 comdat align 2 {
entry:
  %this.addr = alloca ptr, align 8
  %__i.addr = alloca i64, align 8
  store ptr %this, ptr %this.addr, align 8
  store i64 %__i, ptr %__i.addr, align 8
  %this1 = load ptr, ptr %this.addr, align 8
  %0 = load i64, ptr %__i.addr, align 8
  call void @_ZNSt13__atomic_baseImEC2Em(ptr noundef nonnull align 8 dereferenceable(8) %this1, i64 noundef %0) #3
  ret void
}

; Function Attrs: mustprogress nounwind uwtable
define linkonce_odr void @_ZN9grpc_core5ArenaC2EmmPN17grpc_event_engine12experimental15MemoryAllocatorE(ptr noundef nonnull align 8 dereferenceable(48) %this, i64 noundef %initial_size, i64 noundef %initial_alloc, ptr noundef %memory_allocator) unnamed_addr #4 comdat align 2 {
entry:
  %this.addr = alloca ptr, align 8
  %initial_size.addr = alloca i64, align 8
  %initial_alloc.addr = alloca i64, align 8
  %memory_allocator.addr = alloca ptr, align 8
  store ptr %this, ptr %this.addr, align 8
  store i64 %initial_size, ptr %initial_size.addr, align 8
  store i64 %initial_alloc, ptr %initial_alloc.addr, align 8
  store ptr %memory_allocator, ptr %memory_allocator.addr, align 8
  %this1 = load ptr, ptr %this.addr, align 8
  %total_used_ = getelementptr inbounds %"class.grpc_core::Arena", ptr %this1, i32 0, i32 0
  %0 = load i64, ptr %initial_alloc.addr, align 8
  %add = add i64 %0, 16
  %sub = sub i64 %add, 1
  %and = and i64 %sub, 4294967280
  call void @_ZNSt6atomicImEC2Em(ptr noundef nonnull align 8 dereferenceable(8) %total_used_, i64 noundef %and) #3
  %total_allocated_ = getelementptr inbounds %"class.grpc_core::Arena", ptr %this1, i32 0, i32 1
  call void @_ZNSt6atomicImEC2Em(ptr noundef nonnull align 8 dereferenceable(8) %total_allocated_, i64 noundef 0) #3
  %initial_zone_size_ = getelementptr inbounds %"class.grpc_core::Arena", ptr %this1, i32 0, i32 2
  %1 = load i64, ptr %initial_size.addr, align 8
  store i64 %1, ptr %initial_zone_size_, align 8
  %last_zone_ = getelementptr inbounds %"class.grpc_core::Arena", ptr %this1, i32 0, i32 3
  call void @_ZNSt6atomicIPN9grpc_core5Arena4ZoneEEC2ES3_(ptr noundef nonnull align 8 dereferenceable(8) %last_zone_, ptr noundef null) #3
  %managed_new_head_ = getelementptr inbounds %"class.grpc_core::Arena", ptr %this1, i32 0, i32 4
  call void @_ZNSt6atomicIPN9grpc_core5Arena16ManagedNewObjectEEC2ES3_(ptr noundef nonnull align 8 dereferenceable(8) %managed_new_head_, ptr noundef null) #3
  %memory_allocator_ = getelementptr inbounds %"class.grpc_core::Arena", ptr %this1, i32 0, i32 5
  %2 = load ptr, ptr %memory_allocator.addr, align 8
  store ptr %2, ptr %memory_allocator_, align 8
  ret void
}

; Function Attrs: mustprogress uwtable
define internal noundef ptr @_ZN12_GLOBAL__N_112ArenaStorageEm(i64 noundef %initial_size) #6 {
entry:
  %initial_size.addr = alloca i64, align 8
  %alloc_size = alloca i64, align 8
  store i64 %initial_size, ptr %initial_size.addr, align 8
  %0 = load i64, ptr %initial_size.addr, align 8
  %add = add i64 %0, 16
  %sub = sub i64 %add, 1
  %and = and i64 %sub, 4294967280
  store i64 %and, ptr %initial_size.addr, align 8
  %1 = load i64, ptr %initial_size.addr, align 8
  %add1 = add i64 48, %1
  store i64 %add1, ptr %alloc_size, align 8
  %2 = load i64, ptr %alloc_size, align 8
  %call = call ptr @gpr_malloc_aligned(i64 noundef %2, i64 noundef 64)
  ret ptr %call
}

; Function Attrs: mustprogress uwtable
define noundef ptr @_ZN9grpc_core5Arena6CreateEmPN17grpc_event_engine12experimental15MemoryAllocatorE(i64 noundef %initial_size, ptr noundef %memory_allocator) #6 align 2 {
entry:
  %initial_size.addr = alloca i64, align 8
  %memory_allocator.addr = alloca ptr, align 8
  store i64 %initial_size, ptr %initial_size.addr, align 8
  store ptr %memory_allocator, ptr %memory_allocator.addr, align 8
  %0 = load i64, ptr %initial_size.addr, align 8
  %call = call noundef ptr @_ZN12_GLOBAL__N_112ArenaStorageEm(i64 noundef %0)
  %1 = load i64, ptr %initial_size.addr, align 8
  %2 = load ptr, ptr %memory_allocator.addr, align 8
  call void @_ZN9grpc_core5ArenaC2EmmPN17grpc_event_engine12experimental15MemoryAllocatorE(ptr noundef nonnull align 8 dereferenceable(48) %call, i64 noundef %1, i64 noundef 0, ptr noundef %2)
  ret ptr %call
}