; Function Attrs: mustprogress uwtable
define noundef ptr @_ZN9grpc_core5Arena6CreateEmPN17grpc_event_engine12experimental15MemoryAllocatorE(i64 noundef %initial_size, ptr noundef %memory_allocator) local_unnamed_addr #5 align 2 {
entry:
  %sub.i = add i64 %initial_size, 15
  %and.i = and i64 %sub.i, 4294967280
  %add1.i = add nuw nsw i64 %and.i, 48
  %call.i = tail call noundef ptr @gpr_malloc_aligned(i64 noundef %add1.i, i64 noundef 64)
  %initial_zone_size_.i = getelementptr inbounds i8, ptr %call.i, i64 16
  tail call void @llvm.memset.p0.i64(ptr noundef nonnull align 8 dereferenceable(16) %call.i, i8 0, i64 16, i1 false)
  store i64 %initial_size, ptr %initial_zone_size_.i, align 8
  %last_zone_.i = getelementptr inbounds i8, ptr %call.i, i64 24
  %memory_allocator_.i = getelementptr inbounds i8, ptr %call.i, i64 40
  tail call void @llvm.memset.p0.i64(ptr noundef nonnull align 8 dereferenceable(16) %last_zone_.i, i8 0, i64 16, i1 false)
  store ptr %memory_allocator, ptr %memory_allocator_.i, align 8
  ret ptr %call.i
}